target datalayout = "e-m:e-p270:32:32-p271:32:32-p272:64:64-i64:64-i128:128-f80:128-n8:16:32:64-S128"
target triple = "x86_64-pc-linux-gnu"

%struct.png_struct_def = type { [1 x %struct.__jmp_buf_tag], ptr, ptr, i64, ptr, ptr, ptr, ptr, ptr, ptr, ptr, ptr, ptr, i8, i8, i32, i32, i32, i32, %struct.z_stream_s, ptr, i32, i32, i32, i32, i32, i32, i32, i32, i32, i32, i32, i32, i32, i32, i32, i32, i32, i32, i32, i32, i64, i32, i32, i32, ptr, ptr, ptr, ptr, i64, i32, i32, ptr, i16, i32, i16, i8, i8, i8, i8, i8, i8, i8, i8, i8, i8, i8, i8, i8, i8, i8, i16, i8, i32, %struct.png_color_16_struct, %struct.png_color_16_struct, ptr, i32, i32, i32, i32, ptr, ptr, ptr, ptr, ptr, ptr, %struct.png_color_8_struct, %struct.png_color_8_struct, ptr, %struct.png_color_16_struct, ptr, ptr, ptr, ptr, ptr, ptr, ptr, ptr, ptr, i32, i32, i64, i64, i64, i64, i32, i32, ptr, ptr, i32, [29 x i8], i32, ptr, ptr, i32, i32, ptr, i8, i8, i16, i16, ptr, i32, i8, ptr, ptr, ptr, ptr, ptr, ptr, ptr, i8, i32, i32, i32, i64, %struct.png_unknown_chunk_t, i64, ptr, i64, i32, i32, ptr, [4 x ptr], %struct.png_colorspace }
%struct.__jmp_buf_tag = type { [8 x i64], i32, %struct.__sigset_t }
%struct.__sigset_t = type { [16 x i64] }
%struct.z_stream_s = type { ptr, i32, i64, ptr, i32, i64, ptr, ptr, ptr, ptr, ptr, i32, i64, i64 }
%struct.png_color_8_struct = type { i8, i8, i8, i8, i8 }
%struct.png_color_16_struct = type { i8, i16, i16, i16, i16 }
%struct.png_unknown_chunk_t = type { [5 x i8], ptr, i64, i8 }
%struct.png_colorspace = type { i32, %struct.png_xy, %struct.png_XYZ, i16, i16 }
%struct.png_xy = type { i32, i32, i32, i32, i32, i32, i32, i32 }
%struct.png_XYZ = type { i32, i32, i32, i32, i32, i32, i32, i32, i32 }
%struct.png_image = type { ptr, i32, i32, i32, i32, i32, i32, i32, [64 x i8] }
%struct.png_control = type { ptr, ptr, ptr, ptr, i64, i8 }

@.str.26 = private unnamed_addr constant [11 x i8] c"1.6.44.git\00", align 1
@.str.27 = private unnamed_addr constant [30 x i8] c"png_image_read: out of memory\00", align 1
@.str.28 = private unnamed_addr constant [40 x i8] c"png_image_read: opaque pointer not NULL\00", align 1

; Function Attrs: nounwind uwtable
define noalias ptr @png_create_read_struct_2(ptr noundef %0, ptr noundef %1, ptr noundef %2, ptr noundef %3, ptr noundef %4, ptr noundef %5, ptr noundef %6) #0 {
  %8 = alloca ptr, align 8
  %9 = alloca ptr, align 8
  %10 = alloca ptr, align 8
  %11 = alloca ptr, align 8
  %12 = alloca ptr, align 8
  %13 = alloca ptr, align 8
  %14 = alloca ptr, align 8
  %15 = alloca ptr, align 8
  store ptr %0, ptr %8, align 8
  store ptr %1, ptr %9, align 8
  store ptr %2, ptr %10, align 8
  store ptr %3, ptr %11, align 8
  store ptr %4, ptr %12, align 8
  store ptr %5, ptr %13, align 8
  store ptr %6, ptr %14, align 8
  %16 = load ptr, ptr %8, align 8
  %17 = load ptr, ptr %9, align 8
  %18 = load ptr, ptr %10, align 8
  %19 = load ptr, ptr %11, align 8
  %20 = load ptr, ptr %12, align 8
  %21 = load ptr, ptr %13, align 8
  %22 = load ptr, ptr %14, align 8
  %23 = call noalias ptr @png_create_png_struct(ptr noundef %16, ptr noundef %17, ptr noundef %18, ptr noundef %19, ptr noundef %20, ptr noundef %21, ptr noundef %22)
  store ptr %23, ptr %15, align 8
  %24 = load ptr, ptr %15, align 8
  %25 = icmp ne ptr %24, null
  br i1 %25, label %26, label %36

26:                                               ; preds = %7
  %27 = load ptr, ptr %15, align 8
  %28 = getelementptr inbounds %struct.png_struct_def, ptr %27, i32 0, i32 15
  store i32 32768, ptr %28, align 4
  %29 = load ptr, ptr %15, align 8
  %30 = getelementptr inbounds %struct.png_struct_def, ptr %29, i32 0, i32 141
  store i32 8192, ptr %30, align 8
  %31 = load ptr, ptr %15, align 8
  %32 = getelementptr inbounds %struct.png_struct_def, ptr %31, i32 0, i32 16
  %33 = load i32, ptr %32, align 8
  %34 = or i32 %33, 1048576
  store i32 %34, ptr %32, align 8
  %35 = load ptr, ptr %15, align 8
  call void @png_set_read_fn(ptr noundef %35, ptr noundef null, ptr noundef null)
  br label %36

36:                                               ; preds = %26, %7
  %37 = load ptr, ptr %15, align 8
  ret ptr %37
}

; Function Attrs: nounwind uwtable
define noalias ptr @png_create_read_struct(ptr noundef %0, ptr noundef %1, ptr noundef %2, ptr noundef %3) #0 {
  %5 = alloca ptr, align 8
  %6 = alloca ptr, align 8
  %7 = alloca ptr, align 8
  %8 = alloca ptr, align 8
  store ptr %0, ptr %5, align 8
  store ptr %1, ptr %6, align 8
  store ptr %2, ptr %7, align 8
  store ptr %3, ptr %8, align 8
  %9 = load ptr, ptr %5, align 8
  %10 = load ptr, ptr %6, align 8
  %11 = load ptr, ptr %7, align 8
  %12 = load ptr, ptr %8, align 8
  %13 = call noalias ptr @png_create_read_struct_2(ptr noundef %9, ptr noundef %10, ptr noundef %11, ptr noundef %12, ptr noundef null, ptr noundef null, ptr noundef null)
  ret ptr %13
}

; Function Attrs: nounwind uwtable
define internal i32 @png_image_read_init(ptr noundef %0) #0 {
  %2 = alloca i32, align 4
  %3 = alloca ptr, align 8
  %4 = alloca ptr, align 8
  %5 = alloca ptr, align 8
  %6 = alloca ptr, align 8
  store ptr %0, ptr %3, align 8
  %7 = load ptr, ptr %3, align 8
  %8 = getelementptr inbounds %struct.png_image, ptr %7, i32 0, i32 0
  %9 = load ptr, ptr %8, align 8
  %10 = icmp eq ptr %9, null
  br i1 %10, label %11, label %51

11:                                               ; preds = %1
  %12 = load ptr, ptr %3, align 8
  %13 = call noalias ptr @png_create_read_struct(ptr noundef @.str.26, ptr noundef %12, ptr noundef @png_safe_error, ptr noundef @png_safe_warning)
  store ptr %13, ptr %4, align 8
  %14 = load ptr, ptr %3, align 8
  call void @llvm.memset.p0.i64(ptr align 8 %14, i8 0, i64 104, i1 false)
  %15 = load ptr, ptr %3, align 8
  %16 = getelementptr inbounds %struct.png_image, ptr %15, i32 0, i32 1
  store i32 1, ptr %16, align 8
  %17 = load ptr, ptr %4, align 8
  %18 = icmp ne ptr %17, null
  br i1 %18, label %19, label %48

19:                                               ; preds = %11
  %20 = load ptr, ptr %4, align 8
  %21 = call noalias ptr @png_create_info_struct(ptr noundef %20)
  store ptr %21, ptr %5, align 8
  %22 = load ptr, ptr %5, align 8
  %23 = icmp ne ptr %22, null
  br i1 %23, label %24, label %47

24:                                               ; preds = %19
  %25 = load ptr, ptr %4, align 8
  %26 = call noalias ptr @png_malloc_warn(ptr noundef %25, i64 noundef 48)
  store ptr %26, ptr %6, align 8
  %27 = load ptr, ptr %6, align 8
  %28 = icmp ne ptr %27, null
  br i1 %28, label %29, label %45

29:                                               ; preds = %24
  %30 = load ptr, ptr %6, align 8
  call void @llvm.memset.p0.i64(ptr align 8 %30, i8 0, i64 48, i1 false)
  %31 = load ptr, ptr %4, align 8
  %32 = load ptr, ptr %6, align 8
  %33 = getelementptr inbounds %struct.png_control, ptr %32, i32 0, i32 0
  store ptr %31, ptr %33, align 8
  %34 = load ptr, ptr %5, align 8
  %35 = load ptr, ptr %6, align 8
  %36 = getelementptr inbounds %struct.png_control, ptr %35, i32 0, i32 1
  store ptr %34, ptr %36, align 8
  %37 = load ptr, ptr %6, align 8
  %38 = getelementptr inbounds %struct.png_control, ptr %37, i32 0, i32 5
  %39 = load i8, ptr %38, align 8
  %40 = and i8 %39, -2
  %41 = or i8 %40, 0
  store i8 %41, ptr %38, align 8
  %42 = load ptr, ptr %6, align 8
  %43 = load ptr, ptr %3, align 8
  %44 = getelementptr inbounds %struct.png_image, ptr %43, i32 0, i32 0
  store ptr %42, ptr %44, align 8
  store i32 1, ptr %2, align 4
  br label %54

45:                                               ; preds = %24
  %46 = load ptr, ptr %4, align 8
  call void @png_destroy_info_struct(ptr noundef %46, ptr noundef %5)
  br label %47

47:                                               ; preds = %45, %19
  call void @png_destroy_read_struct(ptr noundef %4, ptr noundef null, ptr noundef null)
  br label %48

48:                                               ; preds = %47, %11
  %49 = load ptr, ptr %3, align 8
  %50 = call i32 @png_image_error(ptr noundef %49, ptr noundef @.str.27)
  store i32 %50, ptr %2, align 4
  br label %54

51:                                               ; preds = %1
  %52 = load ptr, ptr %3, align 8
  %53 = call i32 @png_image_error(ptr noundef %52, ptr noundef @.str.28)
  store i32 %53, ptr %2, align 4
  br label %54

54:                                               ; preds = %51, %48, %29
  %55 = load i32, ptr %2, align 4
  ret i32 %55
}