; Function Attrs: nounwind uwtable
define internal fastcc i32 @png_image_read_init(ptr noundef %0) unnamed_addr #0 {
  %2 = alloca ptr, align 8
  %3 = alloca ptr, align 8
  %4 = load ptr, ptr %0, align 8
  %5 = icmp eq ptr %4, null
  br i1 %5, label %6, label %26

6:                                                ; preds = %1
  %7 = tail call noalias ptr @png_create_png_struct(ptr noundef nonnull @.str.26, ptr noundef nonnull %0, ptr noundef nonnull @png_safe_error, ptr noundef nonnull @png_safe_warning, ptr noundef null, ptr noundef null, ptr noundef null) #11
  %.not.i.i = icmp eq ptr %7, null
  br i1 %.not.i.i, label %png_create_read_struct.exit.thread, label %9

png_create_read_struct.exit.thread:               ; preds = %6
  store ptr null, ptr %2, align 8
  tail call void @llvm.memset.p0.i64(ptr noundef nonnull align 8 dereferenceable(104) %0, i8 0, i64 104, i1 false)
  %8 = getelementptr inbounds i8, ptr %0, i64 8
  store i32 1, ptr %8, align 8
  br label %24

9:                                                ; preds = %6
  %10 = getelementptr inbounds i8, ptr %7, i64 300
  store i32 32768, ptr %10, align 4
  %11 = getelementptr inbounds i8, ptr %7, i64 1136
  store i32 8192, ptr %11, align 8
  %12 = getelementptr inbounds i8, ptr %7, i64 304
  %13 = load i32, ptr %12, align 8
  %14 = or i32 %13, 1048576
  store i32 %14, ptr %12, align 8
  tail call void @png_set_read_fn(ptr noundef nonnull %7, ptr noundef null, ptr noundef null) #11
  store ptr %7, ptr %2, align 8
  tail call void @llvm.memset.p0.i64(ptr noundef nonnull align 8 dereferenceable(104) %0, i8 0, i64 104, i1 false)
  %15 = getelementptr inbounds i8, ptr %0, i64 8
  store i32 1, ptr %15, align 8
  %16 = tail call noalias ptr @png_create_info_struct(ptr noundef nonnull %7) #11
  store ptr %16, ptr %3, align 8
  %.not15 = icmp eq ptr %16, null
  br i1 %.not15, label %23, label %17

17:                                               ; preds = %9
  %18 = tail call noalias ptr @png_malloc_warn(ptr noundef nonnull %7, i64 noundef 48) #11
  %.not16 = icmp eq ptr %18, null
  br i1 %.not16, label %22, label %19

19:                                               ; preds = %17
  %20 = getelementptr inbounds i8, ptr %18, i64 16
  tail call void @llvm.memset.p0.i64(ptr noundef nonnull align 8 dereferenceable(48) %20, i8 0, i64 32, i1 false)
  store ptr %7, ptr %18, align 8
  %21 = getelementptr inbounds i8, ptr %18, i64 8
  store ptr %16, ptr %21, align 8
  store ptr %18, ptr %0, align 8
  br label %28

22:                                               ; preds = %17
  call void @png_destroy_info_struct(ptr noundef nonnull %7, ptr noundef nonnull %3) #11
  br label %23

23:                                               ; preds = %22, %9
  call void @png_destroy_read_struct(ptr noundef nonnull %2, ptr noundef null, ptr noundef null)
  br label %24

24:                                               ; preds = %png_create_read_struct.exit.thread, %23
  %25 = call i32 @png_image_error(ptr noundef nonnull %0, ptr noundef nonnull @.str.27) #11
  br label %28

26:                                               ; preds = %1
  %27 = tail call i32 @png_image_error(ptr noundef nonnull %0, ptr noundef nonnull @.str.28) #11
  br label %28

28:                                               ; preds = %26, %24, %19
  %.0 = phi i32 [ 1, %19 ], [ %25, %24 ], [ %27, %26 ]
  ret i32 %.0
}